; Function Attrs: nounwind uwtable
define hidden i64 @ssl_private_key_max_signature_len(ptr noundef %0) local_unnamed_addr #0 {
  %2 = getelementptr inbounds nuw i8, ptr %0, i64 136
  %3 = load ptr, ptr %2, align 8, !tbaa !6
  %4 = getelementptr inbounds nuw i8, ptr %3, i64 24
  %5 = load ptr, ptr %4, align 8, !tbaa !53
  %.not = icmp eq ptr %5, null
  br i1 %.not, label %10, label %6

6:                                                ; preds = %1
  %7 = getelementptr inbounds nuw i8, ptr %5, i64 8
  %8 = load ptr, ptr %7, align 8, !tbaa !58
  %9 = tail call i64 %8(ptr noundef nonnull %0) #6
  br label %15

10:                                               ; preds = %1
  %11 = getelementptr inbounds nuw i8, ptr %3, i64 8
  %12 = load ptr, ptr %11, align 8, !tbaa !38
  %13 = tail call i32 @EVP_PKEY_size(ptr noundef %12) #6
  %14 = sext i32 %13 to i64
  br label %15

15:                                               ; preds = %10, %6
  %.0 = phi i64 [ %9, %6 ], [ %14, %10 ]
  ret i64 %.0
}